; Function Attrs: mustprogress uwtable
define hidden void @_ZN3euf6egraph15update_childrenEPNS_5enodeE(ptr noundef nonnull align 8 dereferenceable(536) %0, ptr noundef %1) local_unnamed_addr #3 align 2 {
  %3 = getelementptr inbounds nuw i8, ptr %1, i64 152
  %4 = load i32, ptr %3, align 8, !tbaa !46
  %5 = zext i32 %4 to i64
  %.idx = shl nuw nsw i64 %5, 3
  %6 = getelementptr inbounds nuw i8, ptr %1, i64 %.idx
  %.ptr16 = getelementptr inbounds nuw i8, ptr %6, i64 176
  %.not14 = icmp eq i32 %4, 0
  br i1 %.not14, label %._crit_edge, label %.lr.ph.preheader

.lr.ph.preheader:                                 ; preds = %2
  %.ptr = getelementptr inbounds nuw i8, ptr %1, i64 176
  br label %.lr.ph

._crit_edge:                                      ; preds = %_ZN3euf5enode10add_parentEPS0_.exit, %2
  %7 = getelementptr inbounds nuw i8, ptr %0, i64 112
  %8 = load ptr, ptr %7, align 8, !tbaa !121
  %9 = icmp eq ptr %8, null
  br i1 %9, label %16, label %10

10:                                               ; preds = %._crit_edge
  %11 = getelementptr inbounds i8, ptr %8, i64 -4
  %12 = load i32, ptr %11, align 4, !tbaa !113
  %13 = getelementptr inbounds i8, ptr %8, i64 -8
  %14 = load i32, ptr %13, align 4, !tbaa !113
  %15 = icmp eq i32 %12, %14
  br i1 %15, label %16, label %_ZN6vectorIN3euf6egraph13update_recordELb0EjE9push_backEOS2_.exit

16:                                               ; preds = %10, %._crit_edge
  tail call void @_ZN6vectorIN3euf6egraph13update_recordELb0EjE13expand_vectorEv(ptr noundef nonnull align 8 dereferenceable(8) %7)
  %.pre.i = load ptr, ptr %7, align 8, !tbaa !121
  %.phi.trans.insert.i = getelementptr inbounds i8, ptr %.pre.i, i64 -4
  %.pre2.i = load i32, ptr %.phi.trans.insert.i, align 4, !tbaa !113
  br label %_ZN6vectorIN3euf6egraph13update_recordELb0EjE9push_backEOS2_.exit

_ZN6vectorIN3euf6egraph13update_recordELb0EjE9push_backEOS2_.exit: ; preds = %10, %16
  %17 = phi i32 [ %.pre2.i, %16 ], [ %12, %10 ]
  %18 = phi ptr [ %.pre.i, %16 ], [ %8, %10 ]
  %19 = zext i32 %17 to i64
  %20 = getelementptr inbounds nuw %"struct.euf::egraph::update_record", ptr %18, i64 %19
  store i32 4, ptr %20, align 8, !tbaa !122
  %.sroa.411.0..sroa_idx = getelementptr inbounds nuw i8, ptr %20, i64 8
  store ptr %1, ptr %.sroa.411.0..sroa_idx, align 8, !tbaa !47
  %.sroa.5.0..sroa_idx = getelementptr inbounds nuw i8, ptr %20, i64 16
  store ptr null, ptr %.sroa.5.0..sroa_idx, align 8, !tbaa !47
  %.sroa.6.0..sroa_idx = getelementptr inbounds nuw i8, ptr %20, i64 24
  store i32 -1, ptr %.sroa.6.0..sroa_idx, align 8
  %21 = load ptr, ptr %7, align 8, !tbaa !121
  %22 = getelementptr inbounds i8, ptr %21, i64 -4
  %23 = load i32, ptr %22, align 4, !tbaa !113
  %24 = add i32 %23, 1
  store i32 %24, ptr %22, align 4, !tbaa !113
  ret void

.lr.ph:                                           ; preds = %.lr.ph.preheader, %_ZN3euf5enode10add_parentEPS0_.exit
  %.015 = phi ptr [ %44, %_ZN3euf5enode10add_parentEPS0_.exit ], [ %.ptr, %.lr.ph.preheader ]
  %25 = load ptr, ptr %.015, align 8, !tbaa !47
  %26 = getelementptr inbounds nuw i8, ptr %25, i64 64
  %27 = load ptr, ptr %26, align 8, !tbaa !32
  %28 = getelementptr inbounds nuw i8, ptr %27, i64 48
  %29 = load ptr, ptr %28, align 8, !tbaa !112
  %30 = icmp eq ptr %29, null
  br i1 %30, label %37, label %31

31:                                               ; preds = %.lr.ph
  %32 = getelementptr inbounds i8, ptr %29, i64 -4
  %33 = load i32, ptr %32, align 4, !tbaa !113
  %34 = getelementptr inbounds i8, ptr %29, i64 -8
  %35 = load i32, ptr %34, align 4, !tbaa !113
  %36 = icmp eq i32 %33, %35
  br i1 %36, label %37, label %_ZN3euf5enode10add_parentEPS0_.exit

37:                                               ; preds = %31, %.lr.ph
  tail call void @_ZN6vectorIPN3euf5enodeELb0EjE13expand_vectorEv(ptr noundef nonnull align 8 dereferenceable(8) %28)
  %.pre.i.i = load ptr, ptr %28, align 8, !tbaa !112
  %.phi.trans.insert.i.i = getelementptr inbounds i8, ptr %.pre.i.i, i64 -4
  %.pre2.i.i = load i32, ptr %.phi.trans.insert.i.i, align 4, !tbaa !113
  br label %_ZN3euf5enode10add_parentEPS0_.exit

_ZN3euf5enode10add_parentEPS0_.exit:              ; preds = %31, %37
  %38 = phi i32 [ %.pre2.i.i, %37 ], [ %33, %31 ]
  %39 = phi ptr [ %.pre.i.i, %37 ], [ %29, %31 ]
  %40 = getelementptr inbounds i8, ptr %39, i64 -4
  %41 = zext i32 %38 to i64
  %42 = getelementptr inbounds nuw ptr, ptr %39, i64 %41
  store ptr %1, ptr %42, align 8, !tbaa !47
  %43 = add i32 %38, 1
  store i32 %43, ptr %40, align 4, !tbaa !113
  %44 = getelementptr inbounds nuw i8, ptr %.015, i64 8
  %.not = icmp eq ptr %44, %.ptr16
  br i1 %.not, label %._crit_edge, label %.lr.ph
}